; Function Attrs: mustprogress uwtable
define void @_ZN3gmx11stripStringERKNSt7__cxx1112basic_stringIcSt11char_traitsIcESaIcEEE(ptr dead_on_unwind noalias writable sret(%"class.std::__cxx11::basic_string") align 8 %0, ptr noundef nonnull align 8 dereferenceable(32) %1) local_unnamed_addr #6 personality ptr @__gxx_personality_v0 {
  %3 = alloca %"class.std::allocator", align 1
  %4 = tail call ptr @_ZNKSt7__cxx1112basic_stringIcSt11char_traitsIcESaIcEE5beginEv(ptr noundef nonnull align 8 dereferenceable(32) %1) #22
  %5 = ptrtoint ptr %4 to i64
  %6 = tail call ptr @_ZNKSt7__cxx1112basic_stringIcSt11char_traitsIcESaIcEE3endEv(ptr noundef nonnull align 8 dereferenceable(32) %1) #22
  %7 = ptrtoint ptr %6 to i64
  %.not1618 = icmp eq ptr %4, %6
  br i1 %.not1618, label %.critedge, label %.lr.ph.preheader

.lr.ph.preheader:                                 ; preds = %2
  %8 = sub i64 %7, %5
  %scevgep = getelementptr i8, ptr %4, i64 %8
  br label %.lr.ph

.lr.ph:                                           ; preds = %.lr.ph.preheader, %12
  %.sroa.012.019 = phi ptr [ %13, %12 ], [ %4, %.lr.ph.preheader ]
  %9 = load i8, ptr %.sroa.012.019, align 1
  %10 = sext i8 %9 to i32
  %11 = tail call i32 @isspace(i32 noundef %10) #21
  %.not = icmp eq i32 %11, 0
  br i1 %.not, label %.critedge.loopexit, label %12

12:                                               ; preds = %.lr.ph
  %13 = getelementptr inbounds i8, ptr %.sroa.012.019, i64 1
  %.not16 = icmp eq ptr %13, %6
  br i1 %.not16, label %.critedge.loopexit, label %.lr.ph, !llvm.loop !8

.critedge.loopexit:                               ; preds = %12, %.lr.ph
  %.sroa.012.0.lcssa.ph = phi ptr [ %.sroa.012.019, %.lr.ph ], [ %scevgep, %12 ]
  %.pre = ptrtoint ptr %.sroa.012.0.lcssa.ph to i64
  br label %.critedge

.critedge:                                        ; preds = %.critedge.loopexit, %2
  %.sroa.012.0.lcssa22.pre-phi = phi i64 [ %.pre, %.critedge.loopexit ], [ %5, %2 ]
  %.sroa.012.0.lcssa = phi ptr [ %.sroa.012.0.lcssa.ph, %.critedge.loopexit ], [ %4, %2 ]
  %14 = sub i64 %.sroa.012.0.lcssa22.pre-phi, %7
  %scevgep23 = getelementptr i8, ptr %6, i64 %14
  br label %15

15:                                               ; preds = %16, %.critedge
  %.sroa.08.0 = phi ptr [ %6, %.critedge ], [ %17, %16 ]
  %.not17 = icmp eq ptr %.sroa.012.0.lcssa, %.sroa.08.0
  br i1 %.not17, label %.critedge2, label %16

16:                                               ; preds = %15
  %17 = getelementptr inbounds i8, ptr %.sroa.08.0, i64 -1
  %18 = load i8, ptr %17, align 1
  %19 = sext i8 %18 to i32
  %20 = tail call i32 @isspace(i32 noundef %19) #21
  %.not6 = icmp eq i32 %20, 0
  br i1 %.not6, label %.critedge2, label %15, !llvm.loop !9

.critedge2:                                       ; preds = %15, %16
  %.sroa.08.0.lcssa = phi ptr [ %scevgep23, %15 ], [ %.sroa.08.0, %16 ]
  call void @_ZNSaIcEC1Ev(ptr noundef nonnull align 1 dereferenceable(1) %3) #22
  %21 = invoke noundef ptr @_ZNSt7__cxx1112basic_stringIcSt11char_traitsIcESaIcEE13_M_local_dataEv(ptr noundef nonnull align 8 dereferenceable(32) %0)
          to label %.noexc unwind label %25

.noexc:                                           ; preds = %.critedge2
  invoke void @_ZNSt7__cxx1112basic_stringIcSt11char_traitsIcESaIcEE12_Alloc_hiderC1EPcRKS3_(ptr noundef nonnull align 8 dereferenceable(8) %0, ptr noundef %21, ptr noundef nonnull align 1 dereferenceable(1) %3)
          to label %.noexc7 unwind label %25

.noexc7:                                          ; preds = %.noexc
  %22 = getelementptr inbounds i8, ptr %0, i64 8
  store i64 0, ptr %22, align 8
  invoke void @_ZNSt7__cxx1112basic_stringIcSt11char_traitsIcESaIcEE12_M_constructIN9__gnu_cxx17__normal_iteratorIPKcS4_EEEEvT_SB_St20forward_iterator_tag(ptr noundef nonnull align 8 dereferenceable(32) %0, ptr %.sroa.012.0.lcssa, ptr %.sroa.08.0.lcssa)
          to label %_ZNSt7__cxx1112basic_stringIcSt11char_traitsIcESaIcEEC2IN9__gnu_cxx17__normal_iteratorIPKcS4_EEvEET_SB_RKS3_.exit unwind label %23

23:                                               ; preds = %.noexc7
  %24 = landingpad { ptr, i32 }
          cleanup
  call void @_ZNSaIcED2Ev(ptr noundef nonnull align 1 dereferenceable(1) %0) #22
  br label %.body

_ZNSt7__cxx1112basic_stringIcSt11char_traitsIcESaIcEEC2IN9__gnu_cxx17__normal_iteratorIPKcS4_EEvEET_SB_RKS3_.exit: ; preds = %.noexc7
  call void @_ZNSaIcED1Ev(ptr noundef nonnull align 1 dereferenceable(1) %3) #22
  ret void

25:                                               ; preds = %.noexc, %.critedge2
  %26 = landingpad { ptr, i32 }
          cleanup
  br label %.body

.body:                                            ; preds = %23, %25
  %eh.lpad-body = phi { ptr, i32 } [ %26, %25 ], [ %24, %23 ]
  call void @_ZNSaIcED1Ev(ptr noundef nonnull align 1 dereferenceable(1) %3) #22
  resume { ptr, i32 } %eh.lpad-body
}